target datalayout = "e-m:e-p270:32:32-p271:32:32-p272:64:64-i64:64-i128:128-f80:128-n8:16:32:64-S128"
target triple = "x86_64-pc-linux-gnu"

%class.QModelIndex = type { i32, i32, i64, ptr }
%class.QFlags = type { i32 }

; Function Attrs: inlinehint mustprogress nounwind null_pointer_is_valid sspstrong uwtable
define linkonce_odr void @_ZN6QFlagsIN2Qt8ItemFlagEEC2Ev(ptr noundef align 4 dereferenceable_or_null(4) %0) unnamed_addr #4 comdat align 2 {
  %2 = alloca ptr, align 8
  store ptr %0, ptr %2, align 8
  %3 = load ptr, ptr %2, align 8
  %4 = getelementptr inbounds nuw %class.QFlags, ptr %3, i32 0, i32 0
  store i32 0, ptr %4, align 4
  ret void
}

; Function Attrs: inlinehint mustprogress nounwind null_pointer_is_valid sspstrong uwtable
define linkonce_odr void @_ZN11QModelIndexC2Ev(ptr noundef align 8 dereferenceable_or_null(24) %0) unnamed_addr #4 comdat align 2 {
  %2 = alloca ptr, align 8
  store ptr %0, ptr %2, align 8
  %3 = load ptr, ptr %2, align 8
  %4 = getelementptr inbounds nuw %class.QModelIndex, ptr %3, i32 0, i32 0
  store i32 -1, ptr %4, align 8
  %5 = getelementptr inbounds nuw %class.QModelIndex, ptr %3, i32 0, i32 1
  store i32 -1, ptr %5, align 4
  %6 = getelementptr inbounds nuw %class.QModelIndex, ptr %3, i32 0, i32 2
  store i64 0, ptr %6, align 8
  %7 = getelementptr inbounds nuw %class.QModelIndex, ptr %3, i32 0, i32 3
  store ptr null, ptr %7, align 8
  ret void
}

; Function Attrs: inlinehint mustprogress nounwind null_pointer_is_valid sspstrong uwtable
define linkonce_odr noundef i32 @_ZNK11QModelIndex3rowEv(ptr noundef align 8 dereferenceable_or_null(24) %0) #4 comdat align 2 {
  %2 = alloca ptr, align 8
  store ptr %0, ptr %2, align 8
  %3 = load ptr, ptr %2, align 8
  %4 = getelementptr inbounds nuw %class.QModelIndex, ptr %3, i32 0, i32 0
  %5 = load i32, ptr %4, align 8
  ret i32 %5
}

; Function Attrs: mustprogress null_pointer_is_valid sspstrong uwtable
define i32 @_ZNK14InfoProxyModel5flagsERK11QModelIndex(ptr noundef align 8 dereferenceable_or_null(48) %0, ptr noundef align 8 dereferenceable(24) %1) unnamed_addr #0 align 2 {
  %3 = alloca %class.QFlags, align 4
  %4 = alloca ptr, align 8
  %5 = alloca ptr, align 8
  %6 = alloca %class.QModelIndex, align 8
  %7 = alloca %class.QModelIndex, align 8
  store ptr %0, ptr %4, align 8
  store ptr %1, ptr %5, align 8
  %8 = load ptr, ptr %4, align 8
  %9 = load ptr, ptr %5, align 8
  %10 = call noundef i32 @_ZNK11QModelIndex3rowEv(ptr noundef align 8 dereferenceable_or_null(24) %9) #18
  %11 = call noundef ptr @_ZNK19QAbstractProxyModel11sourceModelEv(ptr noundef align 8 dereferenceable_or_null(16) %8)
  call void @llvm.lifetime.start.p0(i64 24, ptr %6) #18
  call void @_ZN11QModelIndexC2Ev(ptr noundef align 8 dereferenceable_or_null(24) %6) #18
  %12 = load ptr, ptr %11, align 8
  %13 = getelementptr inbounds ptr, ptr %12, i64 15
  %14 = load ptr, ptr %13, align 8
  %15 = call noundef i32 %14(ptr noundef align 8 dereferenceable_or_null(16) %11, ptr noundef align 8 dereferenceable(24) %6)
  %16 = icmp slt i32 %10, %15
  call void @llvm.lifetime.end.p0(i64 24, ptr %6) #18
  br i1 %16, label %17, label %28

17:                                               ; preds = %2
  %18 = call noundef ptr @_ZNK19QAbstractProxyModel11sourceModelEv(ptr noundef align 8 dereferenceable_or_null(16) %8)
  call void @llvm.lifetime.start.p0(i64 24, ptr %7) #18
  %19 = load ptr, ptr %5, align 8
  %20 = load ptr, ptr %8, align 8
  %21 = getelementptr inbounds ptr, ptr %20, i64 50
  %22 = load ptr, ptr %21, align 8
  call void %22(ptr dead_on_unwind writable sret(%class.QModelIndex) align 8 %7, ptr noundef align 8 dereferenceable_or_null(48) %8, ptr noundef align 8 dereferenceable(24) %19)
  %23 = load ptr, ptr %18, align 8
  %24 = getelementptr inbounds ptr, ptr %23, i64 39
  %25 = load ptr, ptr %24, align 8
  %26 = call i32 %25(ptr noundef align 8 dereferenceable_or_null(16) %18, ptr noundef align 8 dereferenceable(24) %7)
  %27 = getelementptr inbounds nuw %class.QFlags, ptr %3, i32 0, i32 0
  store i32 %26, ptr %27, align 4
  call void @llvm.lifetime.end.p0(i64 24, ptr %7) #18
  br label %29

28:                                               ; preds = %2
  call void @_ZN6QFlagsIN2Qt8ItemFlagEEC2Ev(ptr noundef align 4 dereferenceable_or_null(4) %3) #18
  br label %29

29:                                               ; preds = %28, %17
  %30 = getelementptr inbounds nuw %class.QFlags, ptr %3, i32 0, i32 0
  %31 = load i32, ptr %30, align 4
  ret i32 %31
}