; Function Attrs: mustprogress null_pointer_is_valid sspstrong uwtable
define i32 @_ZNK14InfoProxyModel5flagsERK11QModelIndex(ptr noundef align 8 dereferenceable_or_null(48) %0, ptr noundef align 8 dereferenceable(24) %1) unnamed_addr #0 align 2 {
  %3 = alloca %class.QModelIndex, align 8
  %4 = alloca %class.QModelIndex, align 8
  %5 = load i32, ptr %1, align 8
  %6 = tail call noundef ptr @_ZNK19QAbstractProxyModel11sourceModelEv(ptr noundef align 8 dereferenceable_or_null(16) %0)
  call void @llvm.lifetime.start.p0(i64 24, ptr nonnull %3) #15
  store i32 -1, ptr %3, align 8
  %7 = getelementptr inbounds nuw i8, ptr %3, i64 4
  store i32 -1, ptr %7, align 4
  %8 = getelementptr inbounds nuw i8, ptr %3, i64 8
  call void @llvm.memset.p0.i64(ptr noundef nonnull align 8 dereferenceable(16) %8, i8 0, i64 16, i1 false)
  %9 = load ptr, ptr %6, align 8
  %10 = getelementptr inbounds nuw i8, ptr %9, i64 120
  %11 = load ptr, ptr %10, align 8
  %12 = call noundef i32 %11(ptr noundef align 8 dereferenceable_or_null(16) %6, ptr noundef nonnull align 8 dereferenceable(24) %3)
  %13 = icmp slt i32 %5, %12
  call void @llvm.lifetime.end.p0(i64 24, ptr nonnull %3) #15
  br i1 %13, label %14, label %23

14:                                               ; preds = %2
  %15 = call noundef ptr @_ZNK19QAbstractProxyModel11sourceModelEv(ptr noundef align 8 dereferenceable_or_null(16) %0)
  call void @llvm.lifetime.start.p0(i64 24, ptr nonnull %4) #15
  %16 = load ptr, ptr %0, align 8
  %17 = getelementptr inbounds nuw i8, ptr %16, i64 400
  %18 = load ptr, ptr %17, align 8
  call void %18(ptr dead_on_unwind nonnull writable sret(%class.QModelIndex) align 8 %4, ptr noundef align 8 dereferenceable_or_null(48) %0, ptr noundef align 8 dereferenceable(24) %1)
  %19 = load ptr, ptr %15, align 8
  %20 = getelementptr inbounds nuw i8, ptr %19, i64 312
  %21 = load ptr, ptr %20, align 8
  %22 = call i32 %21(ptr noundef align 8 dereferenceable_or_null(16) %15, ptr noundef nonnull align 8 dereferenceable(24) %4)
  call void @llvm.lifetime.end.p0(i64 24, ptr nonnull %4) #15
  br label %23

23:                                               ; preds = %2, %14
  %.sroa.0.0 = phi i32 [ %22, %14 ], [ 0, %2 ]
  ret i32 %.sroa.0.0
}